; Function Attrs: nounwind uwtable
define ptr @l___private_Lean_Meta_Tactic_Grind_Split_0__Lean_Meta_Grind_checkDefaultSplitStatus___lambda__1(ptr noundef %0, ptr noundef %1, ptr noundef %2, ptr noundef %3, ptr noundef %4, ptr noundef %5, ptr noundef %6, ptr noundef %7, ptr noundef %8, ptr noundef %9, ptr noundef %10, ptr noundef %11) local_unnamed_addr #0 {
  %13 = ptrtoint ptr %0 to i64
  %14 = and i64 %13, 1
  %.not = icmp eq i64 %14, 0
  br i1 %.not, label %15, label %lean_inc.exit

15:                                               ; preds = %12
  %.val.i = load i32, ptr %0, align 4, !tbaa !10
  %16 = icmp sgt i32 %.val.i, 0
  br i1 %16, label %17, label %19, !prof !13

17:                                               ; preds = %15
  %18 = add nuw i32 %.val.i, 1
  store i32 %18, ptr %0, align 4, !tbaa !10
  br label %lean_inc.exit

19:                                               ; preds = %15
  %.not.i30 = icmp eq i32 %.val.i, 0
  br i1 %.not.i30, label %lean_inc.exit, label %20

20:                                               ; preds = %19
  tail call void @lean_inc_ref_cold(ptr noundef nonnull %0) #4
  br label %lean_inc.exit

lean_inc.exit:                                    ; preds = %20, %19, %17, %12
  %21 = tail call zeroext i8 @l_Lean_Meta_Grind_isMorallyIff(ptr noundef %0) #4
  %22 = icmp eq i8 %21, 0
  br i1 %22, label %23, label %56

23:                                               ; preds = %lean_inc.exit
  %24 = ptrtoint ptr %2 to i64
  %25 = and i64 %24, 1
  %.not31 = icmp eq i64 %25, 0
  br i1 %.not31, label %26, label %lean_dec.exit25

26:                                               ; preds = %23
  %27 = load i32, ptr %2, align 4, !tbaa !10
  %28 = icmp sgt i32 %27, 1
  br i1 %28, label %29, label %31, !prof !13

29:                                               ; preds = %26
  %30 = add nsw i32 %27, -1
  store i32 %30, ptr %2, align 4, !tbaa !10
  br label %lean_dec.exit25

31:                                               ; preds = %26
  %.not.i = icmp eq i32 %27, 0
  br i1 %.not.i, label %lean_dec.exit25, label %32

32:                                               ; preds = %31
  tail call void @lean_dec_ref_cold(ptr noundef nonnull %2) #4
  br label %lean_dec.exit25

lean_dec.exit25:                                  ; preds = %32, %31, %29, %23
  %33 = ptrtoint ptr %1 to i64
  %34 = and i64 %33, 1
  %.not32 = icmp eq i64 %34, 0
  br i1 %.not32, label %35, label %lean_dec.exit24

35:                                               ; preds = %lean_dec.exit25
  %36 = load i32, ptr %1, align 4, !tbaa !10
  %37 = icmp sgt i32 %36, 1
  br i1 %37, label %38, label %40, !prof !13

38:                                               ; preds = %35
  %39 = add nsw i32 %36, -1
  store i32 %39, ptr %1, align 4, !tbaa !10
  br label %lean_dec.exit24

40:                                               ; preds = %35
  %.not.i26 = icmp eq i32 %36, 0
  br i1 %.not.i26, label %lean_dec.exit24, label %41

41:                                               ; preds = %40
  tail call void @lean_dec_ref_cold(ptr noundef nonnull %1) #4
  br label %lean_dec.exit24

lean_dec.exit24:                                  ; preds = %41, %40, %38, %lean_dec.exit25
  br i1 %.not, label %42, label %lean_dec.exit

42:                                               ; preds = %lean_dec.exit24
  %43 = load i32, ptr %0, align 4, !tbaa !10
  %44 = icmp sgt i32 %43, 1
  br i1 %44, label %45, label %47, !prof !13

45:                                               ; preds = %42
  %46 = add nsw i32 %43, -1
  store i32 %46, ptr %0, align 4, !tbaa !10
  br label %lean_dec.exit

47:                                               ; preds = %42
  %.not.i28 = icmp eq i32 %43, 0
  br i1 %.not.i28, label %lean_dec.exit, label %48

48:                                               ; preds = %47
  tail call void @lean_dec_ref_cold(ptr noundef nonnull %0) #4
  br label %lean_dec.exit

lean_dec.exit:                                    ; preds = %48, %47, %45, %lean_dec.exit24
  %49 = load ptr, ptr @l___private_Lean_Meta_Tactic_Grind_Split_0__Lean_Meta_Grind_checkIteCondStatus___closed__1, align 8, !tbaa !4
  tail call void @lean_inc_heartbeat() #4
  %50 = tail call noalias ptr @mi_malloc_small(i64 noundef 24) #4
  %51 = icmp eq ptr %50, null
  br i1 %51, label %52, label %lean_alloc_ctor.exit

52:                                               ; preds = %lean_dec.exit
  tail call void @lean_internal_panic_out_of_memory() #5
  unreachable

lean_alloc_ctor.exit:                             ; preds = %lean_dec.exit
  %53 = getelementptr inbounds nuw i8, ptr %50, i64 4
  store i32 1, ptr %50, align 4, !tbaa !10
  store i32 131096, ptr %53, align 4
  %54 = getelementptr inbounds nuw i8, ptr %50, i64 8
  store ptr %49, ptr %54, align 8, !tbaa !4
  %55 = getelementptr inbounds nuw i8, ptr %50, i64 16
  store ptr %11, ptr %55, align 8, !tbaa !4
  br label %58

56:                                               ; preds = %lean_inc.exit
  %57 = tail call ptr @l___private_Lean_Meta_Tactic_Grind_Split_0__Lean_Meta_Grind_checkIffStatus(ptr noundef %0, ptr noundef %1, ptr noundef %2, ptr noundef %3, ptr noundef %4, ptr noundef %5, ptr noundef %6, ptr noundef %7, ptr noundef %8, ptr noundef %9, ptr noundef %10, ptr noundef %11)
  br label %58

58:                                               ; preds = %56, %lean_alloc_ctor.exit
  %.0 = phi ptr [ %50, %lean_alloc_ctor.exit ], [ %57, %56 ]
  ret ptr %.0
}